Certificate:
    Data:
        Version: 3 (0x2)
        Serial Number: 1 (0x1)
    Signature Algorithm: sha1WithRSAEncryption
        Issuer: C=US, ST=CO, L=Boulder, O=CU, OU=CS, CN=Anne/emailAddress=annegatchell@gmail.com
        Validity
            Not Before: Dec 13 01:31:16 2012 GMT
            Not After : Dec 13 01:31:16 2013 GMT
        Subject: C=US, ST=CO, L=Boulder, O=CU, OU=CS, CN=server/emailAddress=annegatchell@gmail.com
        Subject Public Key Info:
            Public Key Algorithm: rsaEncryption
                Public-Key: (1024 bit)
                Modulus:
                    00:b0:14:0d:38:cf:07:88:be:8c:41:ff:70:39:1f:
                    24:40:25:cb:b1:6f:87:fe:5f:83:de:60:46:4b:a6:
                    b4:20:b2:e8:e7:4b:af:45:c3:65:07:8f:8f:f6:c6:
                    03:a4:d8:54:81:ba:42:2a:4a:71:ee:ce:36:0c:39:
                    07:c7:4b:42:d0:a9:e4:ed:42:76:4e:52:93:ea:b5:
                    cf:94:17:9b:4a:8a:7d:0c:d5:e2:bb:e5:63:ad:91:
                    a7:a8:9b:fc:f6:78:0b:d5:67:39:c4:3b:11:85:72:
                    ff:75:12:eb:26:dc:f3:b7:de:bf:05:88:78:1b:b7:
                    ca:d5:cc:2f:2c:ab:c2:24:6f
                Exponent: 65537 (0x10001)
        X509v3 extensions:
            X509v3 Basic Constraints: 
                CA:FALSE
            Netscape Comment: 
                OpenSSL Generated Certificate
            X509v3 Subject Key Identifier: 
                A7:C0:0F:92:C5:A2:AA:22:E8:61:3D:60:8D:57:A6:9B:EA:BA:3C:73
            X509v3 Authority Key Identifier: 
                keyid:AE:D8:B6:B7:02:8B:E5:83:84:EC:A5:11:B3:47:2C:7B:A4:74:E6:C9

    Signature Algorithm: sha1WithRSAEncryption
         70:6b:23:1d:7f:dc:c0:cd:c6:ee:da:82:a1:b7:b1:7f:98:bc:
         f9:99:3e:c1:77:44:17:8a:c4:51:ce:94:b2:90:e5:bb:dc:d1:
         68:1b:89:49:4f:2e:b5:64:73:08:a2:e5:b1:c4:2f:3c:82:6c:
         8a:cf:57:d6:1b:b1:57:2c:d1:02:a3:ca:38:7c:54:97:1e:c5:
         d7:de:76:72:ca:93:46:78:eb:6a:db:a4:18:64:b1:27:ba:69:
         17:c0:35:de:a9:a2:cd:3b:ea:61:68:fa:db:22:ca:a2:32:e2:
         c9:0f:92:df:74:b9:90:e8:82:35:fd:9e:26:06:64:94:f0:35:
         78:56
-----BEGIN CERTIFICATE-----
MIIC6zCCAlSgAwIBAgIBATANBgkqhkiG9w0BAQUFADB8MQswCQYDVQQGEwJVUzEL
MAkGA1UECAwCQ08xEDAOBgNVBAcMB0JvdWxkZXIxCzAJBgNVBAoMAkNVMQswCQYD
VQQLDAJDUzENMAsGA1UEAwwEQW5uZTElMCMGCSqGSIb3DQEJARYWYW5uZWdhdGNo
ZWxsQGdtYWlsLmNvbTAeFw0xMjEyMTMwMTMxMTZaFw0xMzEyMTMwMTMxMTZaMH4x
CzAJBgNVBAYTAlVTMQswCQYDVQQIDAJDTzEQMA4GA1UEBwwHQm91bGRlcjELMAkG
A1UECgwCQ1UxCzAJBgNVBAsMAkNTMQ8wDQYDVQQDDAZzZXJ2ZXIxJTAjBgkqhkiG
9w0BCQEWFmFubmVnYXRjaGVsbEBnbWFpbC5jb20wgZ8wDQYJKoZIhvcNAQEBBQAD
gY0AMIGJAoGBALAUDTjPB4i+jEH/cDkfJEAly7Fvh/5fg95gRkumtCCy6OdLr0XD
ZQePj/bGA6TYVIG6QipKce7ONgw5B8dLQtCp5O1Cdk5Sk+q1z5QXm0qKfQzV4rvl
Y62Rp6ib/PZ4C9VnOcQ7EYVy/3US6ybc87fevwWIeBu3ytXMLyyrwiRvAgMBAAGj
ezB5MAkGA1UdEwQCMAAwLAYJYIZIAYb4QgENBB8WHU9wZW5TU0wgR2VuZXJhdGVk
IENlcnRpZmljYXRlMB0GA1UdDgQWBBSnwA+SxaKqIuhhPWCNV6ab6ro8czAfBgNV
HSMEGDAWgBSu2La3Aovlg4TspRGzRyx7pHTmyTANBgkqhkiG9w0BAQUFAAOBgQBw
ayMdf9zAzcbu2oKht7F/mLz5mT7Bd0QXisRRzpSykOW73NFoG4lJTy61ZHMIouWx
xC88gmyKz1fWG7FXLNECo8o4fFSXHsXX3nZyypNGeOtq26QYZLEnumkXwDXeqaLN
O+phaPrbIsqiMuLJD5LfdLmQ6II1/Z4mBmSU8DV4Vg==
-----END CERTIFICATE-----
