Certificate:
    Data:
        Version: 3 (0x2)
        Serial Number: 2 (0x2)
    Signature Algorithm: sha1WithRSAEncryption
        Issuer: C=US, ST=CO, L=Boulder, O=CU, OU=CS, CN=Anne/emailAddress=annegatchell@gmail.com
        Validity
            Not Before: Dec 13 02:06:42 2012 GMT
            Not After : Dec 13 02:06:42 2013 GMT
        Subject: C=US, ST=CO, L=Boulder, O=CU, OU=CS, CN=Anne/emailAddress=annegatchell@gmail.com
        Subject Public Key Info:
            Public Key Algorithm: rsaEncryption
                Public-Key: (1024 bit)
                Modulus:
                    00:b5:ee:40:35:a9:05:ee:04:86:97:e8:75:cd:c8:
                    92:58:9e:80:c3:6c:21:39:c0:01:a7:52:d0:5f:69:
                    1e:4d:9a:14:1e:f7:67:dc:c2:c2:46:a7:89:09:5c:
                    1a:3a:eb:92:6e:bb:c7:81:87:49:58:ed:38:7c:84:
                    e9:70:a0:10:a7:e7:a1:46:f5:9b:28:f3:5d:ca:eb:
                    87:ac:ba:48:22:d8:4b:39:55:7d:2b:58:c1:ad:3e:
                    ee:18:c6:05:59:d2:9d:28:06:14:cb:f6:99:f9:6e:
                    71:2e:9e:38:76:95:68:f5:d6:5b:ad:62:fb:52:ae:
                    ce:ef:b6:93:3f:63:95:2c:17
                Exponent: 65537 (0x10001)
        X509v3 extensions:
            X509v3 Basic Constraints: 
                CA:FALSE
            Netscape Comment: 
                OpenSSL Generated Certificate
            X509v3 Subject Key Identifier: 
                34:0E:EF:50:39:66:FE:F9:9A:5E:A7:0D:D3:69:7D:1A:28:A3:F5:28
            X509v3 Authority Key Identifier: 
                keyid:AE:D8:B6:B7:02:8B:E5:83:84:EC:A5:11:B3:47:2C:7B:A4:74:E6:C9

    Signature Algorithm: sha1WithRSAEncryption
         18:a8:6e:22:c1:03:48:92:a3:07:10:11:e6:0e:ea:71:c5:24:
         0e:fe:79:ba:49:5a:d0:1b:0c:69:16:0b:91:26:46:e5:c9:62:
         1e:d8:c0:90:fb:6d:53:8a:e4:73:27:05:d0:0e:e9:45:da:ad:
         88:69:d7:c1:e2:bf:29:54:88:6c:6a:1f:70:c6:e1:89:db:77:
         1f:e5:bb:8a:d1:32:e9:cb:9a:1d:ad:9c:6a:7c:35:3b:21:df:
         d7:55:ea:93:b9:58:1c:af:d0:08:af:0d:f2:ff:f5:f3:09:b6:
         fd:c9:52:e2:52:5a:98:c7:3e:39:8f:65:8a:6c:f8:85:34:7a:
         63:ec
-----BEGIN CERTIFICATE-----
MIIC6TCCAlKgAwIBAgIBAjANBgkqhkiG9w0BAQUFADB8MQswCQYDVQQGEwJVUzEL
MAkGA1UECAwCQ08xEDAOBgNVBAcMB0JvdWxkZXIxCzAJBgNVBAoMAkNVMQswCQYD
VQQLDAJDUzENMAsGA1UEAwwEQW5uZTElMCMGCSqGSIb3DQEJARYWYW5uZWdhdGNo
ZWxsQGdtYWlsLmNvbTAeFw0xMjEyMTMwMjA2NDJaFw0xMzEyMTMwMjA2NDJaMHwx
CzAJBgNVBAYTAlVTMQswCQYDVQQIDAJDTzEQMA4GA1UEBwwHQm91bGRlcjELMAkG
A1UECgwCQ1UxCzAJBgNVBAsMAkNTMQ0wCwYDVQQDDARBbm5lMSUwIwYJKoZIhvcN
AQkBFhZhbm5lZ2F0Y2hlbGxAZ21haWwuY29tMIGfMA0GCSqGSIb3DQEBAQUAA4GN
ADCBiQKBgQC17kA1qQXuBIaX6HXNyJJYnoDDbCE5wAGnUtBfaR5NmhQe92fcwsJG
p4kJXBo665Juu8eBh0lY7Th8hOlwoBCn56FG9Zso813K64esukgi2Es5VX0rWMGt
Pu4YxgVZ0p0oBhTL9pn5bnEunjh2lWj11lutYvtSrs7vtpM/Y5UsFwIDAQABo3sw
eTAJBgNVHRMEAjAAMCwGCWCGSAGG+EIBDQQfFh1PcGVuU1NMIEdlbmVyYXRlZCBD
ZXJ0aWZpY2F0ZTAdBgNVHQ4EFgQUNA7vUDlm/vmaXqcN02l9Giij9SgwHwYDVR0j
BBgwFoAUrti2twKL5YOE7KURs0cse6R05skwDQYJKoZIhvcNAQEFBQADgYEAGKhu
IsEDSJKjBxAR5g7qccUkDv55ukla0BsMaRYLkSZG5cliHtjAkPttU4rkcycF0A7p
RdqtiGnXweK/KVSIbGofcMbhidt3H+W7itEy6cuaHa2canw1OyHf11Xqk7lYHK/Q
CK8N8v/18wm2/clS4lJamMc+OY9limz4hTR6Y+w=
-----END CERTIFICATE-----
