Certificate:
    Data:
        Version: 3 (0x2)
        Serial Number: 3 (0x3)
    Signature Algorithm: sha1WithRSAEncryption
        Issuer: C=US, ST=CO, L=Boulder, O=CU, OU=CS, CN=Anne/emailAddress=annegatchell@gmail.com
        Validity
            Not Before: Dec 13 02:23:20 2012 GMT
            Not After : Dec 13 02:23:20 2013 GMT
        Subject: C=US, ST=CO, L=Boulder, O=CU, OU=CS, CN=server1/emailAddress=annegatchell@gmail.com
        Subject Public Key Info:
            Public Key Algorithm: rsaEncryption
                Public-Key: (1024 bit)
                Modulus:
                    00:cc:48:8c:c0:f9:4f:a9:db:1f:7a:bd:57:da:06:
                    70:4a:3a:31:8d:5e:ee:ad:5c:57:aa:a1:91:94:aa:
                    d3:60:85:63:2d:38:1c:85:77:b3:85:56:c5:e1:6e:
                    1f:e5:60:e3:89:37:8e:96:4d:e5:e6:8c:a6:e7:50:
                    d1:78:e6:99:52:8d:48:bc:ce:84:fa:e7:d3:71:9a:
                    17:6c:0a:f0:62:f3:5c:04:06:fc:56:9e:5e:fb:1c:
                    9f:8e:e7:d9:c8:1f:f5:56:54:9a:53:3b:12:ae:0c:
                    cf:2c:1f:aa:4c:c2:a0:b1:f4:b8:76:63:be:88:63:
                    70:6a:a7:1b:9f:1b:8d:94:3d
                Exponent: 65537 (0x10001)
        X509v3 extensions:
            X509v3 Basic Constraints: 
                CA:FALSE
            Netscape Comment: 
                OpenSSL Generated Certificate
            X509v3 Subject Key Identifier: 
                B1:94:48:03:3C:83:00:EA:F7:E9:7C:46:A3:5B:D4:F2:F1:AB:9A:EF
            X509v3 Authority Key Identifier: 
                keyid:AE:D8:B6:B7:02:8B:E5:83:84:EC:A5:11:B3:47:2C:7B:A4:74:E6:C9

    Signature Algorithm: sha1WithRSAEncryption
         40:a8:3f:fe:91:52:3d:4b:9b:ae:f9:f5:2d:aa:ef:27:c9:14:
         89:f5:bf:96:e2:83:57:28:95:4f:22:70:45:b0:80:32:79:7e:
         5e:98:e3:54:12:f9:1b:4c:e9:f4:d0:fe:c3:5b:1e:0b:24:62:
         cf:e2:f1:7b:f1:09:0e:81:19:89:79:f2:da:d9:f2:1a:6d:b6:
         a1:54:6e:bf:d5:73:3d:73:c1:60:13:3c:1c:21:34:aa:8c:42:
         e9:76:00:a3:d0:7f:51:bc:de:dd:89:9f:f8:01:4c:42:19:b7:
         59:45:89:6e:80:d4:f1:41:51:3f:0b:97:7d:ca:58:43:65:e7:
         a1:d7
-----BEGIN CERTIFICATE-----
MIIC7DCCAlWgAwIBAgIBAzANBgkqhkiG9w0BAQUFADB8MQswCQYDVQQGEwJVUzEL
MAkGA1UECAwCQ08xEDAOBgNVBAcMB0JvdWxkZXIxCzAJBgNVBAoMAkNVMQswCQYD
VQQLDAJDUzENMAsGA1UEAwwEQW5uZTElMCMGCSqGSIb3DQEJARYWYW5uZWdhdGNo
ZWxsQGdtYWlsLmNvbTAeFw0xMjEyMTMwMjIzMjBaFw0xMzEyMTMwMjIzMjBaMH8x
CzAJBgNVBAYTAlVTMQswCQYDVQQIDAJDTzEQMA4GA1UEBwwHQm91bGRlcjELMAkG
A1UECgwCQ1UxCzAJBgNVBAsMAkNTMRAwDgYDVQQDDAdzZXJ2ZXIxMSUwIwYJKoZI
hvcNAQkBFhZhbm5lZ2F0Y2hlbGxAZ21haWwuY29tMIGfMA0GCSqGSIb3DQEBAQUA
A4GNADCBiQKBgQDMSIzA+U+p2x96vVfaBnBKOjGNXu6tXFeqoZGUqtNghWMtOByF
d7OFVsXhbh/lYOOJN46WTeXmjKbnUNF45plSjUi8zoT659NxmhdsCvBi81wEBvxW
nl77HJ+O59nIH/VWVJpTOxKuDM8sH6pMwqCx9Lh2Y76IY3BqpxufG42UPQIDAQAB
o3sweTAJBgNVHRMEAjAAMCwGCWCGSAGG+EIBDQQfFh1PcGVuU1NMIEdlbmVyYXRl
ZCBDZXJ0aWZpY2F0ZTAdBgNVHQ4EFgQUsZRIAzyDAOr36XxGo1vU8vGrmu8wHwYD
VR0jBBgwFoAUrti2twKL5YOE7KURs0cse6R05skwDQYJKoZIhvcNAQEFBQADgYEA
QKg//pFSPUubrvn1LarvJ8kUifW/luKDVyiVTyJwRbCAMnl+XpjjVBL5G0zp9ND+
w1seCyRiz+Lxe/EJDoEZiXny2tnyGm22oVRuv9VzPXPBYBM8HCE0qoxC6XYAo9B/
Ubze3Ymf+AFMQhm3WUWJboDU8UFRPwuXfcpYQ2Xnodc=
-----END CERTIFICATE-----
