Certificate:
    Data:
        Version: 3 (0x2)
        Serial Number: 5 (0x5)
    Signature Algorithm: sha1WithRSAEncryption
        Issuer: C=US, ST=CO, L=Boulder, O=CU, OU=CS, CN=Anne/emailAddress=annegatchell@gmail.com
        Validity
            Not Before: Dec 13 02:27:05 2012 GMT
            Not After : Dec 13 02:27:05 2013 GMT
        Subject: C=US, ST=CO, L=Boulder, O=CU, OU=CS, CN=Benny/emailAddress=annegatchell@gmail.com
        Subject Public Key Info:
            Public Key Algorithm: rsaEncryption
                Public-Key: (1024 bit)
                Modulus:
                    00:d7:98:b9:f8:97:b4:af:29:a8:43:17:f3:03:ee:
                    2d:1c:42:08:84:fb:ea:7f:f0:62:5d:ea:d8:15:db:
                    60:45:80:8b:f3:3a:fe:ef:ee:e7:89:88:2d:b2:e2:
                    69:04:c5:c6:67:60:4a:7b:78:89:4b:e7:20:ff:fa:
                    2a:eb:9e:46:e9:61:f8:9d:21:36:a3:cd:65:61:6e:
                    dc:90:e0:83:98:54:84:04:4b:df:43:ab:35:79:5c:
                    ba:4c:b0:c5:bb:b8:14:02:29:c5:bc:b9:6c:f5:15:
                    5c:e2:11:ff:20:2e:81:0d:03:96:37:de:d7:80:05:
                    97:42:a8:df:93:94:88:1a:f9
                Exponent: 65537 (0x10001)
        X509v3 extensions:
            X509v3 Basic Constraints: 
                CA:FALSE
            Netscape Comment: 
                OpenSSL Generated Certificate
            X509v3 Subject Key Identifier: 
                75:51:52:97:F4:4E:83:7B:E7:EC:18:87:10:B1:0A:56:CB:C1:87:FF
            X509v3 Authority Key Identifier: 
                keyid:AE:D8:B6:B7:02:8B:E5:83:84:EC:A5:11:B3:47:2C:7B:A4:74:E6:C9

    Signature Algorithm: sha1WithRSAEncryption
         94:72:ce:e7:27:e2:16:62:27:2e:1b:55:f7:6c:1a:68:19:53:
         ed:d7:0c:6b:3f:bf:20:12:28:71:e0:c9:ff:8a:3b:cb:d1:41:
         74:16:f6:2e:b6:f2:ab:3d:b0:fb:bd:48:dd:6b:f5:b7:04:3f:
         7d:15:dd:1a:68:3b:05:2a:de:c9:49:9f:ab:14:4c:a5:69:8f:
         89:dc:41:39:b3:1a:45:6e:04:55:11:2e:80:63:eb:1b:b6:05:
         b4:4d:20:99:21:a4:ec:90:56:74:4f:29:45:a0:73:8e:e3:df:
         e2:72:98:09:b6:2c:58:eb:db:58:af:c1:4c:71:e2:06:ac:a1:
         3b:60
-----BEGIN CERTIFICATE-----
MIIC6jCCAlOgAwIBAgIBBTANBgkqhkiG9w0BAQUFADB8MQswCQYDVQQGEwJVUzEL
MAkGA1UECAwCQ08xEDAOBgNVBAcMB0JvdWxkZXIxCzAJBgNVBAoMAkNVMQswCQYD
VQQLDAJDUzENMAsGA1UEAwwEQW5uZTElMCMGCSqGSIb3DQEJARYWYW5uZWdhdGNo
ZWxsQGdtYWlsLmNvbTAeFw0xMjEyMTMwMjI3MDVaFw0xMzEyMTMwMjI3MDVaMH0x
CzAJBgNVBAYTAlVTMQswCQYDVQQIDAJDTzEQMA4GA1UEBwwHQm91bGRlcjELMAkG
A1UECgwCQ1UxCzAJBgNVBAsMAkNTMQ4wDAYDVQQDDAVCZW5ueTElMCMGCSqGSIb3
DQEJARYWYW5uZWdhdGNoZWxsQGdtYWlsLmNvbTCBnzANBgkqhkiG9w0BAQEFAAOB
jQAwgYkCgYEA15i5+Je0rymoQxfzA+4tHEIIhPvqf/BiXerYFdtgRYCL8zr+7+7n
iYgtsuJpBMXGZ2BKe3iJS+cg//oq655G6WH4nSE2o81lYW7ckOCDmFSEBEvfQ6s1
eVy6TLDFu7gUAinFvLls9RVc4hH/IC6BDQOWN97XgAWXQqjfk5SIGvkCAwEAAaN7
MHkwCQYDVR0TBAIwADAsBglghkgBhvhCAQ0EHxYdT3BlblNTTCBHZW5lcmF0ZWQg
Q2VydGlmaWNhdGUwHQYDVR0OBBYEFHVRUpf0ToN75+wYhxCxClbLwYf/MB8GA1Ud
IwQYMBaAFK7YtrcCi+WDhOylEbNHLHukdObJMA0GCSqGSIb3DQEBBQUAA4GBAJRy
zucn4hZiJy4bVfdsGmgZU+3XDGs/vyASKHHgyf+KO8vRQXQW9i628qs9sPu9SN1r
9bcEP30V3RpoOwUq3slJn6sUTKVpj4ncQTmzGkVuBFURLoBj6xu2BbRNIJkhpOyQ
VnRPKUWgc47j3+JymAm2LFjr21ivwUxx4gasoTtg
-----END CERTIFICATE-----
