Certificate:
    Data:
        Version: 3 (0x2)
        Serial Number: 7 (0x7)
    Signature Algorithm: sha1WithRSAEncryption
        Issuer: C=US, ST=CO, L=Boulder, O=CU, OU=CS, CN=Anne/emailAddress=annegatchell@gmail.com
        Validity
            Not Before: Dec 13 21:22:21 2012 GMT
            Not After : Dec 13 21:22:21 2013 GMT
        Subject: C=US, ST=CO, L=Boulder, O=CU, OU=CS, CN=Ben Gatchell/emailAddress=annegatchell@gmail.com
        Subject Public Key Info:
            Public Key Algorithm: rsaEncryption
                Public-Key: (1024 bit)
                Modulus:
                    00:dc:2a:2a:e7:4f:d8:24:eb:46:c4:a1:b4:2b:45:
                    16:14:c9:a8:21:90:4d:68:ae:a6:22:b0:a2:f3:70:
                    74:ec:36:24:f7:1d:eb:8c:1e:4a:0b:04:34:4d:ce:
                    0d:49:65:a0:b1:76:61:2c:3b:e4:2a:52:04:a5:0d:
                    41:84:3e:fb:01:f0:bb:31:3a:64:49:30:c3:5a:b6:
                    94:9a:e0:96:e8:e6:34:0e:11:09:fb:24:3e:14:5d:
                    b4:cf:6c:63:f9:69:f1:b4:ec:a3:da:ef:5b:c8:c7:
                    e0:83:f9:7d:ef:6c:5f:8b:1f:6b:0a:b3:e0:ac:20:
                    8f:ae:6e:5d:0c:cf:10:8a:fb
                Exponent: 65537 (0x10001)
        X509v3 extensions:
            X509v3 Basic Constraints: 
                CA:FALSE
            Netscape Comment: 
                OpenSSL Generated Certificate
            X509v3 Subject Key Identifier: 
                07:33:64:00:F9:9B:0E:1C:B4:7F:35:D1:26:25:4E:0D:AD:46:10:EA
            X509v3 Authority Key Identifier: 
                keyid:AE:D8:B6:B7:02:8B:E5:83:84:EC:A5:11:B3:47:2C:7B:A4:74:E6:C9

    Signature Algorithm: sha1WithRSAEncryption
         5a:45:7d:7b:c7:d9:39:51:e6:7a:9e:04:9e:09:b7:2c:93:54:
         2a:c3:09:63:79:73:f2:09:f2:b3:d6:cb:cd:72:22:02:09:35:
         a6:6a:78:1d:8f:92:52:45:22:ce:8c:08:de:76:0c:5b:1a:ae:
         f8:ac:3c:8a:29:ed:7f:f3:9a:0e:e3:d6:d4:91:57:bc:c4:58:
         34:7f:a2:e8:c0:14:ee:88:34:03:93:1a:f3:65:c8:e1:9e:be:
         2d:d0:3c:f6:20:ab:fa:57:b3:5b:c8:87:19:6b:b6:4d:44:6e:
         84:3f:48:1f:0b:a1:2c:2c:2b:b9:62:68:14:cf:81:1e:4b:84:
         e0:fe
-----BEGIN CERTIFICATE-----
MIIC8jCCAlugAwIBAgIBBzANBgkqhkiG9w0BAQUFADB8MQswCQYDVQQGEwJVUzEL
MAkGA1UECAwCQ08xEDAOBgNVBAcMB0JvdWxkZXIxCzAJBgNVBAoMAkNVMQswCQYD
VQQLDAJDUzENMAsGA1UEAwwEQW5uZTElMCMGCSqGSIb3DQEJARYWYW5uZWdhdGNo
ZWxsQGdtYWlsLmNvbTAeFw0xMjEyMTMyMTIyMjFaFw0xMzEyMTMyMTIyMjFaMIGE
MQswCQYDVQQGEwJVUzELMAkGA1UECAwCQ08xEDAOBgNVBAcMB0JvdWxkZXIxCzAJ
BgNVBAoMAkNVMQswCQYDVQQLDAJDUzEVMBMGA1UEAwwMQmVuIEdhdGNoZWxsMSUw
IwYJKoZIhvcNAQkBFhZhbm5lZ2F0Y2hlbGxAZ21haWwuY29tMIGfMA0GCSqGSIb3
DQEBAQUAA4GNADCBiQKBgQDcKirnT9gk60bEobQrRRYUyaghkE1orqYisKLzcHTs
NiT3HeuMHkoLBDRNzg1JZaCxdmEsO+QqUgSlDUGEPvsB8LsxOmRJMMNatpSa4Jbo
5jQOEQn7JD4UXbTPbGP5afG07KPa71vIx+CD+X3vbF+LH2sKs+CsII+ubl0MzxCK
+wIDAQABo3sweTAJBgNVHRMEAjAAMCwGCWCGSAGG+EIBDQQfFh1PcGVuU1NMIEdl
bmVyYXRlZCBDZXJ0aWZpY2F0ZTAdBgNVHQ4EFgQUBzNkAPmbDhy0fzXRJiVODa1G
EOowHwYDVR0jBBgwFoAUrti2twKL5YOE7KURs0cse6R05skwDQYJKoZIhvcNAQEF
BQADgYEAWkV9e8fZOVHmep4Engm3LJNUKsMJY3lz8gnys9bLzXIiAgk1pmp4HY+S
UkUizowI3nYMWxqu+Kw8iintf/OaDuPW1JFXvMRYNH+i6MAU7og0A5Ma82XI4Z6+
LdA89iCr+lezW8iHGWu2TURuhD9IHwuhLCwruWJoFM+BHkuE4P4=
-----END CERTIFICATE-----
