Certificate:
    Data:
        Version: 3 (0x2)
        Serial Number: 9 (0x9)
    Signature Algorithm: sha1WithRSAEncryption
        Issuer: C=US, ST=CO, L=Boulder, O=CU, OU=CS, CN=Anne/emailAddress=annegatchell@gmail.com
        Validity
            Not Before: Dec 14 04:06:05 2012 GMT
            Not After : Dec 14 04:06:05 2013 GMT
        Subject: C=US, ST=CO, L=Boulder, O=CU, OU=CS, CN=Gary/emailAddress=annegatchell@gmail.com
        Subject Public Key Info:
            Public Key Algorithm: rsaEncryption
                Public-Key: (1024 bit)
                Modulus:
                    00:a2:b8:87:72:3e:29:b2:8c:18:da:cf:f4:ec:59:
                    a2:bf:0c:23:7f:26:16:03:50:ec:28:80:3e:6b:e6:
                    f4:11:14:77:cd:d4:b0:96:f7:23:e3:3c:2f:ce:fc:
                    9c:fc:e2:81:be:bc:58:a2:1c:8f:5b:91:e6:bc:f9:
                    bf:15:80:96:46:89:65:b0:b6:c0:81:40:11:dc:05:
                    dc:12:c7:1b:ae:66:a1:2c:dd:8d:04:79:57:b5:24:
                    74:b1:94:5c:41:c0:ba:90:8e:97:1e:b8:cf:31:f2:
                    c7:b6:70:a1:9a:e3:bb:c7:41:74:98:d4:9d:44:64:
                    f5:29:77:96:66:12:a1:2e:29
                Exponent: 65537 (0x10001)
        X509v3 extensions:
            X509v3 Basic Constraints: 
                CA:FALSE
            Netscape Comment: 
                OpenSSL Generated Certificate
            X509v3 Subject Key Identifier: 
                F5:BA:75:03:B8:38:29:EC:AB:6F:78:47:5E:C0:D2:8A:98:69:52:33
            X509v3 Authority Key Identifier: 
                keyid:AE:D8:B6:B7:02:8B:E5:83:84:EC:A5:11:B3:47:2C:7B:A4:74:E6:C9

    Signature Algorithm: sha1WithRSAEncryption
         39:69:87:8c:a6:ba:61:0c:57:e6:fb:33:4b:a0:52:30:55:33:
         4b:d9:22:79:4d:01:1d:3c:26:6d:7f:51:8e:de:92:b9:2d:91:
         81:16:32:a2:be:aa:d8:41:b1:b0:d1:bf:b6:8e:94:fe:f8:bd:
         04:54:32:1c:65:42:c5:82:3e:31:95:c1:a5:2d:fe:7a:9f:b5:
         04:85:f7:dc:93:ae:16:5f:0b:52:ca:36:52:49:93:6b:12:86:
         47:d1:06:6b:a5:1b:0b:3e:42:ee:fc:7b:08:bc:05:78:a7:a8:
         78:70:c4:c9:4f:07:fe:70:1b:4a:f8:e6:c9:6b:6f:6a:14:e8:
         a4:a9
-----BEGIN CERTIFICATE-----
MIIC6TCCAlKgAwIBAgIBCTANBgkqhkiG9w0BAQUFADB8MQswCQYDVQQGEwJVUzEL
MAkGA1UECAwCQ08xEDAOBgNVBAcMB0JvdWxkZXIxCzAJBgNVBAoMAkNVMQswCQYD
VQQLDAJDUzENMAsGA1UEAwwEQW5uZTElMCMGCSqGSIb3DQEJARYWYW5uZWdhdGNo
ZWxsQGdtYWlsLmNvbTAeFw0xMjEyMTQwNDA2MDVaFw0xMzEyMTQwNDA2MDVaMHwx
CzAJBgNVBAYTAlVTMQswCQYDVQQIDAJDTzEQMA4GA1UEBwwHQm91bGRlcjELMAkG
A1UECgwCQ1UxCzAJBgNVBAsMAkNTMQ0wCwYDVQQDDARHYXJ5MSUwIwYJKoZIhvcN
AQkBFhZhbm5lZ2F0Y2hlbGxAZ21haWwuY29tMIGfMA0GCSqGSIb3DQEBAQUAA4GN
ADCBiQKBgQCiuIdyPimyjBjaz/TsWaK/DCN/JhYDUOwogD5r5vQRFHfN1LCW9yPj
PC/O/Jz84oG+vFiiHI9bkea8+b8VgJZGiWWwtsCBQBHcBdwSxxuuZqEs3Y0EeVe1
JHSxlFxBwLqQjpceuM8x8se2cKGa47vHQXSY1J1EZPUpd5ZmEqEuKQIDAQABo3sw
eTAJBgNVHRMEAjAAMCwGCWCGSAGG+EIBDQQfFh1PcGVuU1NMIEdlbmVyYXRlZCBD
ZXJ0aWZpY2F0ZTAdBgNVHQ4EFgQU9bp1A7g4Keyrb3hHXsDSiphpUjMwHwYDVR0j
BBgwFoAUrti2twKL5YOE7KURs0cse6R05skwDQYJKoZIhvcNAQEFBQADgYEAOWmH
jKa6YQxX5vszS6BSMFUzS9kieU0BHTwmbX9Rjt6SuS2RgRYyor6q2EGxsNG/to6U
/vi9BFQyHGVCxYI+MZXBpS3+ep+1BIX33JOuFl8LUso2UkmTaxKGR9EGa6UbCz5C
7vx7CLwFeKeoeHDEyU8H/nAbSvjmyWtvahTopKk=
-----END CERTIFICATE-----
